target datalayout = "e-m:e-p270:32:32-p271:32:32-p272:64:64-i64:64-i128:128-f80:128-n8:16:32:64-S128"
target triple = "x86_64-pc-linux-gnu"

%"class.gmx::ISimulatorElement" = type { ptr }
%"class.std::vector" = type { %"struct.std::_Vector_base" }
%"struct.std::_Vector_base" = type { %"struct.std::_Vector_base<float, std::allocator<float>>::_Vector_impl" }
%"struct.std::_Vector_base<float, std::allocator<float>>::_Vector_impl" = type { %"struct.std::_Vector_base<float, std::allocator<float>>::_Vector_impl_data" }
%"struct.std::_Vector_base<float, std::allocator<float>>::_Vector_impl_data" = type { ptr, ptr, ptr }
%"class.gmx::MultiDimArray" = type { %"struct.std::array", %"class.gmx::basic_mdspan" }
%"struct.std::array" = type { [9 x float] }
%"class.gmx::basic_mdspan" = type { %"class.gmx::accessor_basic", %"class.gmx::layout_right::mapping", ptr }
%"class.gmx::accessor_basic" = type { i8 }
%"class.gmx::layout_right::mapping" = type { %"class.gmx::extents" }
%"class.gmx::extents" = type { %"struct.gmx::detail::extents_analyse" }
%"struct.gmx::detail::extents_analyse" = type { %"struct.gmx::detail::extents_analyse.0" }
%"struct.gmx::detail::extents_analyse.0" = type { %"struct.gmx::detail::extents_analyse.1" }
%"struct.gmx::detail::extents_analyse.1" = type { i8 }
%"class.gmx::Propagator.332" = type { %"class.gmx::ISimulatorElement", float, ptr, i8, i8, i8, i8, i8, i8, %"class.std::vector", %"class.std::vector", %"class.std::vector", i64, i64, %"class.gmx::MultiDimArray", i64, ptr, ptr }
%"class.gmx::ArrayRef.57" = type { %"struct.gmx::ArrayRefIter.58", %"struct.gmx::ArrayRefIter.58" }
%"struct.gmx::ArrayRefIter.58" = type { ptr }
%"class.__gnu_cxx::__normal_iterator.91" = type { ptr }
%class.anon.349 = type { i8 }
%class.anon.374 = type { ptr }

@.str.53 = private unnamed_addr constant [137 x i8] c"generated/home/dtcxzyw/WorkSpace/Projects/compilers/llvm-opt-benchmark/bench/gromacs/gromacs/src/gromacs/modularsimulator/propagator.cpp\00", align 1
@.str.69 = private unnamed_addr constant [31 x i8] c"!startVelocityScaling_.empty()\00", align 1
@.str.70 = private unnamed_addr constant [46 x i8] c"Number of velocity scaling variables not set.\00", align 1

; Function Attrs: mustprogress nounwind uwtable
define linkonce_odr noundef ptr @_ZNKSt6vectorIfSaIfEE11_M_data_ptrIfEEPT_S4_(ptr noundef nonnull align 8 dereferenceable(24) %0, ptr noundef %1) #1 comdat align 2 {
  %3 = alloca ptr, align 8
  %4 = alloca ptr, align 8
  store ptr %0, ptr %3, align 8
  store ptr %1, ptr %4, align 8
  %5 = load ptr, ptr %4, align 8
  ret ptr %5
}

; Function Attrs: mustprogress nounwind uwtable
define linkonce_odr noundef nonnull align 8 dereferenceable(8) ptr @_ZNK9__gnu_cxx17__normal_iteratorIPKfSt6vectorIfSaIfEEE4baseEv(ptr noundef nonnull align 8 dereferenceable(8) %0) #1 comdat align 2 {
  %2 = alloca ptr, align 8
  store ptr %0, ptr %2, align 8
  %3 = load ptr, ptr %2, align 8
  %4 = getelementptr inbounds %"class.__gnu_cxx::__normal_iterator.91", ptr %3, i32 0, i32 0
  ret ptr %4
}

; Function Attrs: mustprogress nounwind uwtable
define linkonce_odr void @_ZN9__gnu_cxx17__normal_iteratorIPKfSt6vectorIfSaIfEEEC2ERKS2_(ptr noundef nonnull align 8 dereferenceable(8) %0, ptr noundef nonnull align 8 dereferenceable(8) %1) unnamed_addr #1 comdat align 2 {
  %3 = alloca ptr, align 8
  %4 = alloca ptr, align 8
  store ptr %0, ptr %3, align 8
  store ptr %1, ptr %4, align 8
  %5 = load ptr, ptr %3, align 8
  %6 = getelementptr inbounds %"class.__gnu_cxx::__normal_iterator.91", ptr %5, i32 0, i32 0
  %7 = load ptr, ptr %4, align 8
  %8 = load ptr, ptr %7, align 8
  store ptr %8, ptr %6, align 8
  ret void
}

; Function Attrs: mustprogress nounwind uwtable
define linkonce_odr noundef i64 @_ZNKSt6vectorIfSaIfEE4sizeEv(ptr noundef nonnull align 8 dereferenceable(24) %0) #1 comdat align 2 {
  %2 = alloca ptr, align 8
  store ptr %0, ptr %2, align 8
  %3 = load ptr, ptr %2, align 8
  %4 = getelementptr inbounds %"struct.std::_Vector_base", ptr %3, i32 0, i32 0
  %5 = getelementptr inbounds %"struct.std::_Vector_base<float, std::allocator<float>>::_Vector_impl_data", ptr %4, i32 0, i32 1
  %6 = load ptr, ptr %5, align 8
  %7 = getelementptr inbounds %"struct.std::_Vector_base", ptr %3, i32 0, i32 0
  %8 = getelementptr inbounds %"struct.std::_Vector_base<float, std::allocator<float>>::_Vector_impl_data", ptr %7, i32 0, i32 0
  %9 = load ptr, ptr %8, align 8
  %10 = ptrtoint ptr %6 to i64
  %11 = ptrtoint ptr %9 to i64
  %12 = sub i64 %10, %11
  %13 = sdiv exact i64 %12, 4
  ret i64 %13
}

; Function Attrs: mustprogress nounwind uwtable
define linkonce_odr void @_ZN3gmx12ArrayRefIterIfEC2EPf(ptr noundef nonnull align 8 dereferenceable(8) %0, ptr noundef %1) unnamed_addr #1 comdat align 2 {
  %3 = alloca ptr, align 8
  %4 = alloca ptr, align 8
  store ptr %0, ptr %3, align 8
  store ptr %1, ptr %4, align 8
  %5 = load ptr, ptr %3, align 8
  %6 = getelementptr inbounds %"struct.gmx::ArrayRefIter.58", ptr %5, i32 0, i32 0
  %7 = load ptr, ptr %4, align 8
  store ptr %7, ptr %6, align 8
  ret void
}

; Function Attrs: mustprogress nounwind uwtable
define linkonce_odr noundef ptr @_ZNSt6vectorIfSaIfEE4dataEv(ptr noundef nonnull align 8 dereferenceable(24) %0) #1 comdat align 2 {
  %2 = alloca ptr, align 8
  store ptr %0, ptr %2, align 8
  %3 = load ptr, ptr %2, align 8
  %4 = getelementptr inbounds %"struct.std::_Vector_base", ptr %3, i32 0, i32 0
  %5 = getelementptr inbounds %"struct.std::_Vector_base<float, std::allocator<float>>::_Vector_impl_data", ptr %4, i32 0, i32 0
  %6 = load ptr, ptr %5, align 8
  %7 = call noundef ptr @_ZNKSt6vectorIfSaIfEE11_M_data_ptrIfEEPT_S4_(ptr noundef nonnull align 8 dereferenceable(24) %3, ptr noundef %6) #10
  ret ptr %7
}

; Function Attrs: mustprogress nounwind uwtable
define linkonce_odr noundef zeroext i1 @_ZN9__gnu_cxxeqIPKfSt6vectorIfSaIfEEEEbRKNS_17__normal_iteratorIT_T0_EESB_(ptr noundef nonnull align 8 dereferenceable(8) %0, ptr noundef nonnull align 8 dereferenceable(8) %1) #1 comdat {
  %3 = alloca ptr, align 8
  %4 = alloca ptr, align 8
  store ptr %0, ptr %3, align 8
  store ptr %1, ptr %4, align 8
  %5 = load ptr, ptr %3, align 8
  %6 = call noundef nonnull align 8 dereferenceable(8) ptr @_ZNK9__gnu_cxx17__normal_iteratorIPKfSt6vectorIfSaIfEEE4baseEv(ptr noundef nonnull align 8 dereferenceable(8) %5) #10
  %7 = load ptr, ptr %6, align 8
  %8 = load ptr, ptr %4, align 8
  %9 = call noundef nonnull align 8 dereferenceable(8) ptr @_ZNK9__gnu_cxx17__normal_iteratorIPKfSt6vectorIfSaIfEEE4baseEv(ptr noundef nonnull align 8 dereferenceable(8) %8) #10
  %10 = load ptr, ptr %9, align 8
  %11 = icmp eq ptr %7, %10
  ret i1 %11
}

; Function Attrs: mustprogress nounwind uwtable
define linkonce_odr ptr @_ZNKSt6vectorIfSaIfEE3endEv(ptr noundef nonnull align 8 dereferenceable(24) %0) #1 comdat align 2 {
  %2 = alloca %"class.__gnu_cxx::__normal_iterator.91", align 8
  %3 = alloca ptr, align 8
  store ptr %0, ptr %3, align 8
  %4 = load ptr, ptr %3, align 8
  %5 = getelementptr inbounds %"struct.std::_Vector_base", ptr %4, i32 0, i32 0
  %6 = getelementptr inbounds %"struct.std::_Vector_base<float, std::allocator<float>>::_Vector_impl_data", ptr %5, i32 0, i32 1
  call void @_ZN9__gnu_cxx17__normal_iteratorIPKfSt6vectorIfSaIfEEEC2ERKS2_(ptr noundef nonnull align 8 dereferenceable(8) %2, ptr noundef nonnull align 8 dereferenceable(8) %6) #10
  %7 = getelementptr inbounds %"class.__gnu_cxx::__normal_iterator.91", ptr %2, i32 0, i32 0
  %8 = load ptr, ptr %7, align 8
  ret ptr %8
}

; Function Attrs: mustprogress nounwind uwtable
define linkonce_odr ptr @_ZNKSt6vectorIfSaIfEE5beginEv(ptr noundef nonnull align 8 dereferenceable(24) %0) #1 comdat align 2 {
  %2 = alloca %"class.__gnu_cxx::__normal_iterator.91", align 8
  %3 = alloca ptr, align 8
  store ptr %0, ptr %3, align 8
  %4 = load ptr, ptr %3, align 8
  %5 = getelementptr inbounds %"struct.std::_Vector_base", ptr %4, i32 0, i32 0
  %6 = getelementptr inbounds %"struct.std::_Vector_base<float, std::allocator<float>>::_Vector_impl_data", ptr %5, i32 0, i32 0
  call void @_ZN9__gnu_cxx17__normal_iteratorIPKfSt6vectorIfSaIfEEEC2ERKS2_(ptr noundef nonnull align 8 dereferenceable(8) %2, ptr noundef nonnull align 8 dereferenceable(8) %6) #10
  %7 = getelementptr inbounds %"class.__gnu_cxx::__normal_iterator.91", ptr %2, i32 0, i32 0
  %8 = load ptr, ptr %7, align 8
  ret ptr %8
}

; Function Attrs: mustprogress nounwind uwtable
define linkonce_odr void @_ZN3gmx8ArrayRefIfEC2IRSt6vectorIfSaIfEEvEEOT_(ptr noundef nonnull align 8 dereferenceable(16) %0, ptr noundef nonnull align 8 dereferenceable(24) %1) unnamed_addr #1 comdat align 2 {
  %3 = alloca ptr, align 8
  %4 = alloca ptr, align 8
  store ptr %0, ptr %3, align 8
  store ptr %1, ptr %4, align 8
  %5 = load ptr, ptr %3, align 8
  %6 = getelementptr inbounds %"class.gmx::ArrayRef.57", ptr %5, i32 0, i32 0
  %7 = load ptr, ptr %4, align 8
  %8 = call noundef ptr @_ZNSt6vectorIfSaIfEE4dataEv(ptr noundef nonnull align 8 dereferenceable(24) %7) #10
  call void @_ZN3gmx12ArrayRefIterIfEC2EPf(ptr noundef nonnull align 8 dereferenceable(8) %6, ptr noundef %8) #10
  %9 = getelementptr inbounds %"class.gmx::ArrayRef.57", ptr %5, i32 0, i32 1
  %10 = load ptr, ptr %4, align 8
  %11 = call noundef ptr @_ZNSt6vectorIfSaIfEE4dataEv(ptr noundef nonnull align 8 dereferenceable(24) %10) #10
  %12 = load ptr, ptr %4, align 8
  %13 = call noundef i64 @_ZNKSt6vectorIfSaIfEE4sizeEv(ptr noundef nonnull align 8 dereferenceable(24) %12) #10
  %14 = getelementptr inbounds float, ptr %11, i64 %13
  call void @_ZN3gmx12ArrayRefIterIfEC2EPf(ptr noundef nonnull align 8 dereferenceable(8) %9, ptr noundef %14) #10
  ret void
}

; Function Attrs: mustprogress uwtable
define linkonce_odr void @_ZZN3gmx10PropagatorILNS_16IntegrationStageE1EE26viewOnStartVelocityScalingEvENKUlvE0_clEv(ptr noundef nonnull align 1 dereferenceable(1) %0) #0 comdat align 2 {
  %2 = alloca ptr, align 8
  store ptr %0, ptr %2, align 8
  call void @_ZN3gmx8internal13assertHandlerEPKcS2_S2_S2_i(ptr noundef @.str.69, ptr noundef @.str.70, ptr noundef @__PRETTY_FUNCTION__._ZZN3gmx10PropagatorILNS_16IntegrationStageE1EE26viewOnStartVelocityScalingEvENKUlvE0_clEv, ptr noundef @.str.53, i32 noundef 807) #20
  unreachable
}

; Function Attrs: mustprogress nounwind uwtable
define linkonce_odr noundef zeroext i1 @_ZNKSt6vectorIfSaIfEE5emptyEv(ptr noundef nonnull align 8 dereferenceable(24) %0) #1 comdat align 2 {
  %2 = alloca ptr, align 8
  %3 = alloca %"class.__gnu_cxx::__normal_iterator.91", align 8
  %4 = alloca %"class.__gnu_cxx::__normal_iterator.91", align 8
  store ptr %0, ptr %2, align 8
  %5 = load ptr, ptr %2, align 8
  %6 = call ptr @_ZNKSt6vectorIfSaIfEE5beginEv(ptr noundef nonnull align 8 dereferenceable(24) %5) #10
  %7 = getelementptr inbounds %"class.__gnu_cxx::__normal_iterator.91", ptr %3, i32 0, i32 0
  store ptr %6, ptr %7, align 8
  %8 = call ptr @_ZNKSt6vectorIfSaIfEE3endEv(ptr noundef nonnull align 8 dereferenceable(24) %5) #10
  %9 = getelementptr inbounds %"class.__gnu_cxx::__normal_iterator.91", ptr %4, i32 0, i32 0
  store ptr %8, ptr %9, align 8
  %10 = call noundef zeroext i1 @_ZN9__gnu_cxxeqIPKfSt6vectorIfSaIfEEEEbRKNS_17__normal_iteratorIT_T0_EESB_(ptr noundef nonnull align 8 dereferenceable(8) %3, ptr noundef nonnull align 8 dereferenceable(8) %4) #10
  ret i1 %10
}

; Function Attrs: mustprogress uwtable
define weak_odr { ptr, ptr } @_ZN3gmx10PropagatorILNS_16IntegrationStageE1EE26viewOnStartVelocityScalingEv(ptr noundef nonnull align 8 dereferenceable(200) %0) #0 comdat align 2 {
  %2 = alloca %"class.gmx::ArrayRef.57", align 8
  %3 = alloca ptr, align 8
  %4 = alloca %class.anon.349, align 1
  store ptr %0, ptr %3, align 8
  %5 = load ptr, ptr %3, align 8
  %6 = getelementptr inbounds %"class.gmx::Propagator.332", ptr %5, i32 0, i32 9
  %7 = call noundef zeroext i1 @_ZNKSt6vectorIfSaIfEE5emptyEv(ptr noundef nonnull align 8 dereferenceable(24) %6) #10
  br i1 %7, label %9, label %8

8:                                                ; preds = %1
  br label %10

9:                                                ; preds = %1
  call void @_ZZN3gmx10PropagatorILNS_16IntegrationStageE1EE26viewOnStartVelocityScalingEvENKUlvE0_clEv(ptr noundef nonnull align 1 dereferenceable(1) %4)
  br label %10

10:                                               ; preds = %9, %8
  %11 = getelementptr inbounds %"class.gmx::Propagator.332", ptr %5, i32 0, i32 9
  call void @_ZN3gmx8ArrayRefIfEC2IRSt6vectorIfSaIfEEvEEOT_(ptr noundef nonnull align 8 dereferenceable(16) %2, ptr noundef nonnull align 8 dereferenceable(24) %11)
  %12 = load { ptr, ptr }, ptr %2, align 8
  ret { ptr, ptr } %12
}

; Function Attrs: mustprogress uwtable
define internal { ptr, ptr } @_ZZN3gmxL13getConnectionILNS_16IntegrationStageE1EEENS_20PropagatorConnectionEPNS_10PropagatorIXT_EEERKNS_13PropagatorTagEENKUlvE0_clEv(ptr noundef nonnull align 8 dereferenceable(8) %0) #0 align 2 {
  %2 = alloca %"class.gmx::ArrayRef.57", align 8
  %3 = alloca ptr, align 8
  store ptr %0, ptr %3, align 8
  %4 = load ptr, ptr %3, align 8
  %5 = getelementptr inbounds %class.anon.374, ptr %4, i32 0, i32 0
  %6 = load ptr, ptr %5, align 8
  %7 = call { ptr, ptr } @_ZN3gmx10PropagatorILNS_16IntegrationStageE1EE26viewOnStartVelocityScalingEv(ptr noundef nonnull align 8 dereferenceable(200) %6)
  %8 = getelementptr inbounds { ptr, ptr }, ptr %2, i32 0, i32 0
  %9 = extractvalue { ptr, ptr } %7, 0
  store ptr %9, ptr %8, align 8
  %10 = getelementptr inbounds { ptr, ptr }, ptr %2, i32 0, i32 1
  %11 = extractvalue { ptr, ptr } %7, 1
  store ptr %11, ptr %10, align 8
  %12 = load { ptr, ptr }, ptr %2, align 8
  ret { ptr, ptr } %12
}

; Function Attrs: mustprogress nounwind uwtable
define linkonce_odr noundef ptr @_ZNKSt9_Any_data9_M_accessEv(ptr noundef nonnull align 8 dereferenceable(16) %0) #1 comdat align 2 {
  %2 = alloca ptr, align 8
  store ptr %0, ptr %2, align 8
  %3 = load ptr, ptr %2, align 8
  %4 = getelementptr inbounds [16 x i8], ptr %3, i64 0, i64 0
  ret ptr %4
}

; Function Attrs: mustprogress uwtable
define internal { ptr, ptr } @_ZSt13__invoke_implIN3gmx8ArrayRefIfEERZNS0_L13getConnectionILNS0_16IntegrationStageE1EEENS0_20PropagatorConnectionEPNS0_10PropagatorIXT_EEERKNS0_13PropagatorTagEEUlvE0_JEET_St14__invoke_otherOT0_DpOT1_(ptr noundef nonnull align 8 dereferenceable(8) %0) #0 {
  %2 = alloca %"class.gmx::ArrayRef.57", align 8
  %3 = alloca ptr, align 8
  store ptr %0, ptr %3, align 8
  %4 = load ptr, ptr %3, align 8
  %5 = call { ptr, ptr } @_ZZN3gmxL13getConnectionILNS_16IntegrationStageE1EEENS_20PropagatorConnectionEPNS_10PropagatorIXT_EEERKNS_13PropagatorTagEENKUlvE0_clEv(ptr noundef nonnull align 8 dereferenceable(8) %4)
  %6 = getelementptr inbounds { ptr, ptr }, ptr %2, i32 0, i32 0
  %7 = extractvalue { ptr, ptr } %5, 0
  store ptr %7, ptr %6, align 8
  %8 = getelementptr inbounds { ptr, ptr }, ptr %2, i32 0, i32 1
  %9 = extractvalue { ptr, ptr } %5, 1
  store ptr %9, ptr %8, align 8
  %10 = load { ptr, ptr }, ptr %2, align 8
  ret { ptr, ptr } %10
}

; Function Attrs: mustprogress nounwind uwtable
define internal noundef nonnull align 8 dereferenceable(8) ptr @_ZNKSt9_Any_data9_M_accessIZN3gmxL13getConnectionILNS1_16IntegrationStageE1EEENS1_20PropagatorConnectionEPNS1_10PropagatorIXT_EEERKNS1_13PropagatorTagEEUlvE0_EERKT_v(ptr noundef nonnull align 8 dereferenceable(16) %0) #1 align 2 {
  %2 = alloca ptr, align 8
  store ptr %0, ptr %2, align 8
  %3 = load ptr, ptr %2, align 8
  %4 = call noundef ptr @_ZNKSt9_Any_data9_M_accessEv(ptr noundef nonnull align 8 dereferenceable(16) %3) #10
  ret ptr %4
}

; Function Attrs: mustprogress uwtable
define internal { ptr, ptr } @_ZSt10__invoke_rIN3gmx8ArrayRefIfEERZNS0_L13getConnectionILNS0_16IntegrationStageE1EEENS0_20PropagatorConnectionEPNS0_10PropagatorIXT_EEERKNS0_13PropagatorTagEEUlvE0_JEENSt9enable_ifIX16is_invocable_r_vIT_T0_DpT1_EESF_E4typeEOSG_DpOSH_(ptr noundef nonnull align 8 dereferenceable(8) %0) #0 {
  %2 = alloca %"class.gmx::ArrayRef.57", align 8
  %3 = alloca ptr, align 8
  store ptr %0, ptr %3, align 8
  %4 = load ptr, ptr %3, align 8
  %5 = call { ptr, ptr } @_ZSt13__invoke_implIN3gmx8ArrayRefIfEERZNS0_L13getConnectionILNS0_16IntegrationStageE1EEENS0_20PropagatorConnectionEPNS0_10PropagatorIXT_EEERKNS0_13PropagatorTagEEUlvE0_JEET_St14__invoke_otherOT0_DpOT1_(ptr noundef nonnull align 8 dereferenceable(8) %4)
  %6 = getelementptr inbounds { ptr, ptr }, ptr %2, i32 0, i32 0
  %7 = extractvalue { ptr, ptr } %5, 0
  store ptr %7, ptr %6, align 8
  %8 = getelementptr inbounds { ptr, ptr }, ptr %2, i32 0, i32 1
  %9 = extractvalue { ptr, ptr } %5, 1
  store ptr %9, ptr %8, align 8
  %10 = load { ptr, ptr }, ptr %2, align 8
  ret { ptr, ptr } %10
}

; Function Attrs: mustprogress nounwind uwtable
define internal noundef ptr @_ZNSt14_Function_base13_Base_managerIZN3gmxL13getConnectionILNS1_16IntegrationStageE1EEENS1_20PropagatorConnectionEPNS1_10PropagatorIXT_EEERKNS1_13PropagatorTagEEUlvE0_E14_M_get_pointerERKSt9_Any_data(ptr noundef nonnull align 8 dereferenceable(16) %0) #1 align 2 {
  %2 = alloca ptr, align 8
  %3 = alloca ptr, align 8
  store ptr %0, ptr %2, align 8
  %4 = load ptr, ptr %2, align 8
  %5 = call noundef nonnull align 8 dereferenceable(8) ptr @_ZNKSt9_Any_data9_M_accessIZN3gmxL13getConnectionILNS1_16IntegrationStageE1EEENS1_20PropagatorConnectionEPNS1_10PropagatorIXT_EEERKNS1_13PropagatorTagEEUlvE0_EERKT_v(ptr noundef nonnull align 8 dereferenceable(16) %4) #10
  store ptr %5, ptr %3, align 8
  %6 = load ptr, ptr %3, align 8
  ret ptr %6
}

; Function Attrs: mustprogress uwtable
define internal { ptr, ptr } @_ZNSt17_Function_handlerIFN3gmx8ArrayRefIfEEvEZNS0_L13getConnectionILNS0_16IntegrationStageE1EEENS0_20PropagatorConnectionEPNS0_10PropagatorIXT_EEERKNS0_13PropagatorTagEEUlvE0_E9_M_invokeERKSt9_Any_data(ptr noundef nonnull align 8 dereferenceable(16) %0) #0 align 2 {
  %2 = alloca %"class.gmx::ArrayRef.57", align 8
  %3 = alloca ptr, align 8
  store ptr %0, ptr %3, align 8
  %4 = load ptr, ptr %3, align 8
  %5 = call noundef ptr @_ZNSt14_Function_base13_Base_managerIZN3gmxL13getConnectionILNS1_16IntegrationStageE1EEENS1_20PropagatorConnectionEPNS1_10PropagatorIXT_EEERKNS1_13PropagatorTagEEUlvE0_E14_M_get_pointerERKSt9_Any_data(ptr noundef nonnull align 8 dereferenceable(16) %4) #10
  %6 = call { ptr, ptr } @_ZSt10__invoke_rIN3gmx8ArrayRefIfEERZNS0_L13getConnectionILNS0_16IntegrationStageE1EEENS0_20PropagatorConnectionEPNS0_10PropagatorIXT_EEERKNS0_13PropagatorTagEEUlvE0_JEENSt9enable_ifIX16is_invocable_r_vIT_T0_DpT1_EESF_E4typeEOSG_DpOSH_(ptr noundef nonnull align 8 dereferenceable(8) %5)
  %7 = getelementptr inbounds { ptr, ptr }, ptr %2, i32 0, i32 0
  %8 = extractvalue { ptr, ptr } %6, 0
  store ptr %8, ptr %7, align 8
  %9 = getelementptr inbounds { ptr, ptr }, ptr %2, i32 0, i32 1
  %10 = extractvalue { ptr, ptr } %6, 1
  store ptr %10, ptr %9, align 8
  %11 = load { ptr, ptr }, ptr %2, align 8
  ret { ptr, ptr } %11
}